target datalayout = "e-m:e-p270:32:32-p271:32:32-p272:64:64-i64:64-i128:128-f80:128-n8:16:32:64-S128"
target triple = "x86_64-pc-linux-gnu"

%"struct.duckdb_brotli::HuffmanTree" = type { i32, i16, i16 }

; Function Attrs: mustprogress nounwind uwtable
define noundef i32 @_ZN13duckdb_brotli14BrotliSetDepthEiPNS_11HuffmanTreeEPhi(i32 noundef %0, ptr noundef %1, ptr noundef %2, i32 noundef %3) #0 {
  %5 = alloca i32, align 4
  %6 = alloca i32, align 4
  %7 = alloca ptr, align 8
  %8 = alloca ptr, align 8
  %9 = alloca i32, align 4
  %10 = alloca [16 x i32], align 16
  %11 = alloca i32, align 4
  %12 = alloca i32, align 4
  %13 = alloca i32, align 4
  store i32 %0, ptr %6, align 4, !tbaa !3
  store ptr %1, ptr %7, align 8, !tbaa !7
  store ptr %2, ptr %8, align 8, !tbaa !10
  store i32 %3, ptr %9, align 4, !tbaa !3
  call void @llvm.lifetime.start.p0(i64 64, ptr %10) #7
  call void @llvm.lifetime.start.p0(i64 4, ptr %11) #7
  store i32 0, ptr %11, align 4, !tbaa !3
  call void @llvm.lifetime.start.p0(i64 4, ptr %12) #7
  %14 = load i32, ptr %6, align 4, !tbaa !3
  store i32 %14, ptr %12, align 4, !tbaa !3
  %15 = getelementptr inbounds [16 x i32], ptr %10, i64 0, i64 0
  store i32 -1, ptr %15, align 16, !tbaa !3
  br label %16

16:                                               ; preds = %82, %33, %4
  br label %17

17:                                               ; preds = %16
  %18 = load ptr, ptr %7, align 8, !tbaa !7
  %19 = load i32, ptr %12, align 4, !tbaa !3
  %20 = sext i32 %19 to i64
  %21 = getelementptr inbounds %"struct.duckdb_brotli::HuffmanTree", ptr %18, i64 %20
  %22 = getelementptr inbounds nuw %"struct.duckdb_brotli::HuffmanTree", ptr %21, i32 0, i32 1
  %23 = load i16, ptr %22, align 4, !tbaa !12
  %24 = sext i16 %23 to i32
  %25 = icmp sge i32 %24, 0
  br i1 %25, label %26, label %51

26:                                               ; preds = %17
  %27 = load i32, ptr %11, align 4, !tbaa !3
  %28 = add nsw i32 %27, 1
  store i32 %28, ptr %11, align 4, !tbaa !3
  %29 = load i32, ptr %11, align 4, !tbaa !3
  %30 = load i32, ptr %9, align 4, !tbaa !3
  %31 = icmp sgt i32 %29, %30
  br i1 %31, label %32, label %33

32:                                               ; preds = %26
  store i32 0, ptr %5, align 4
  store i32 1, ptr %13, align 4
  br label %90

33:                                               ; preds = %26
  %34 = load ptr, ptr %7, align 8, !tbaa !7
  %35 = load i32, ptr %12, align 4, !tbaa !3
  %36 = sext i32 %35 to i64
  %37 = getelementptr inbounds %"struct.duckdb_brotli::HuffmanTree", ptr %34, i64 %36
  %38 = getelementptr inbounds nuw %"struct.duckdb_brotli::HuffmanTree", ptr %37, i32 0, i32 2
  %39 = load i16, ptr %38, align 2, !tbaa !15
  %40 = sext i16 %39 to i32
  %41 = load i32, ptr %11, align 4, !tbaa !3
  %42 = sext i32 %41 to i64
  %43 = getelementptr inbounds [16 x i32], ptr %10, i64 0, i64 %42
  store i32 %40, ptr %43, align 4, !tbaa !3
  %44 = load ptr, ptr %7, align 8, !tbaa !7
  %45 = load i32, ptr %12, align 4, !tbaa !3
  %46 = sext i32 %45 to i64
  %47 = getelementptr inbounds %"struct.duckdb_brotli::HuffmanTree", ptr %44, i64 %46
  %48 = getelementptr inbounds nuw %"struct.duckdb_brotli::HuffmanTree", ptr %47, i32 0, i32 1
  %49 = load i16, ptr %48, align 4, !tbaa !12
  %50 = sext i16 %49 to i32
  store i32 %50, ptr %12, align 4, !tbaa !3
  br label %16, !llvm.loop !16

51:                                               ; preds = %17
  %52 = load i32, ptr %11, align 4, !tbaa !3
  %53 = trunc i32 %52 to i8
  %54 = load ptr, ptr %8, align 8, !tbaa !10
  %55 = load ptr, ptr %7, align 8, !tbaa !7
  %56 = load i32, ptr %12, align 4, !tbaa !3
  %57 = sext i32 %56 to i64
  %58 = getelementptr inbounds %"struct.duckdb_brotli::HuffmanTree", ptr %55, i64 %57
  %59 = getelementptr inbounds nuw %"struct.duckdb_brotli::HuffmanTree", ptr %58, i32 0, i32 2
  %60 = load i16, ptr %59, align 2, !tbaa !15
  %61 = sext i16 %60 to i64
  %62 = getelementptr inbounds i8, ptr %54, i64 %61
  store i8 %53, ptr %62, align 1, !tbaa !18
  br label %63

63:                                               ; preds = %51
  br label %64

64:                                               ; preds = %75, %63
  %65 = load i32, ptr %11, align 4, !tbaa !3
  %66 = icmp sge i32 %65, 0
  br i1 %66, label %67, label %73

67:                                               ; preds = %64
  %68 = load i32, ptr %11, align 4, !tbaa !3
  %69 = sext i32 %68 to i64
  %70 = getelementptr inbounds [16 x i32], ptr %10, i64 0, i64 %69
  %71 = load i32, ptr %70, align 4, !tbaa !3
  %72 = icmp eq i32 %71, -1
  br label %73

73:                                               ; preds = %67, %64
  %74 = phi i1 [ false, %64 ], [ %72, %67 ]
  br i1 %74, label %75, label %78

75:                                               ; preds = %73
  %76 = load i32, ptr %11, align 4, !tbaa !3
  %77 = add nsw i32 %76, -1
  store i32 %77, ptr %11, align 4, !tbaa !3
  br label %64, !llvm.loop !19

78:                                               ; preds = %73
  %79 = load i32, ptr %11, align 4, !tbaa !3
  %80 = icmp slt i32 %79, 0
  br i1 %80, label %81, label %82

81:                                               ; preds = %78
  store i32 1, ptr %5, align 4
  store i32 1, ptr %13, align 4
  br label %90

82:                                               ; preds = %78
  %83 = load i32, ptr %11, align 4, !tbaa !3
  %84 = sext i32 %83 to i64
  %85 = getelementptr inbounds [16 x i32], ptr %10, i64 0, i64 %84
  %86 = load i32, ptr %85, align 4, !tbaa !3
  store i32 %86, ptr %12, align 4, !tbaa !3
  %87 = load i32, ptr %11, align 4, !tbaa !3
  %88 = sext i32 %87 to i64
  %89 = getelementptr inbounds [16 x i32], ptr %10, i64 0, i64 %88
  store i32 -1, ptr %89, align 4, !tbaa !3
  br label %16, !llvm.loop !16

90:                                               ; preds = %81, %32
  call void @llvm.lifetime.end.p0(i64 4, ptr %12) #7
  call void @llvm.lifetime.end.p0(i64 4, ptr %11) #7
  call void @llvm.lifetime.end.p0(i64 64, ptr %10) #7
  %91 = load i32, ptr %5, align 4
  ret i32 %91
}