; Function Attrs: mustprogress nofree norecurse nosync nounwind memory(argmem: readwrite) uwtable
define noundef range(i32 0, 2) i32 @_ZN13duckdb_brotli14BrotliSetDepthEiPNS_11HuffmanTreeEPhi(i32 noundef %0, ptr noundef readonly captures(none) %1, ptr noundef writeonly captures(none) %2, i32 noundef %3) local_unnamed_addr #0 {
  %5 = alloca [16 x i32], align 16
  call void @llvm.lifetime.start.p0(i64 64, ptr nonnull %5) #4
  store i32 -1, ptr %5, align 16, !tbaa !3
  br label %.backedge

.backedge:                                        ; preds = %.backedge.backedge, %4
  %.021 = phi i32 [ 0, %4 ], [ %.021.be, %.backedge.backedge ]
  %.0 = phi i32 [ %0, %4 ], [ %.0.be, %.backedge.backedge ]
  %6 = sext i32 %.0 to i64
  %7 = getelementptr inbounds %"struct.duckdb_brotli::HuffmanTree", ptr %1, i64 %6
  %8 = getelementptr inbounds nuw i8, ptr %7, i64 4
  %9 = load i16, ptr %8, align 4, !tbaa !7
  %10 = icmp sgt i16 %9, -1
  br i1 %10, label %11, label %20

11:                                               ; preds = %.backedge
  %.not = icmp slt i32 %.021, %3
  br i1 %.not, label %12, label %.critedge.thread

12:                                               ; preds = %11
  %13 = add nsw i32 %.021, 1
  %14 = getelementptr inbounds nuw i8, ptr %7, i64 6
  %15 = load i16, ptr %14, align 2, !tbaa !10
  %16 = sext i16 %15 to i32
  %17 = sext i32 %13 to i64
  %18 = getelementptr inbounds [16 x i32], ptr %5, i64 0, i64 %17
  store i32 %16, ptr %18, align 4, !tbaa !3
  %19 = zext nneg i16 %9 to i32
  br label %.backedge.backedge

.backedge.backedge:                               ; preds = %12, %.critedge
  %.021.be = phi i32 [ %13, %12 ], [ %.126, %.critedge ]
  %.0.be = phi i32 [ %19, %12 ], [ %29, %.critedge ]
  br label %.backedge, !llvm.loop !11

20:                                               ; preds = %.backedge
  %21 = trunc i32 %.021 to i8
  %22 = getelementptr inbounds nuw i8, ptr %7, i64 6
  %23 = load i16, ptr %22, align 2, !tbaa !10
  %24 = sext i16 %23 to i64
  %25 = getelementptr inbounds i8, ptr %2, i64 %24
  store i8 %21, ptr %25, align 1, !tbaa !13
  %26 = icmp sgt i32 %.021, -1
  br i1 %26, label %.lr.ph, label %.critedge.thread

.lr.ph:                                           ; preds = %20, %31
  %.126 = phi i32 [ %32, %31 ], [ %.021, %20 ]
  %27 = zext nneg i32 %.126 to i64
  %28 = getelementptr inbounds nuw [16 x i32], ptr %5, i64 0, i64 %27
  %29 = load i32, ptr %28, align 4, !tbaa !3
  %30 = icmp eq i32 %29, -1
  br i1 %30, label %31, label %.critedge

31:                                               ; preds = %.lr.ph
  %32 = add nsw i32 %.126, -1
  %33 = icmp sgt i32 %.126, 0
  br i1 %33, label %.lr.ph, label %.critedge.thread, !llvm.loop !14

.critedge:                                        ; preds = %.lr.ph
  %34 = getelementptr inbounds nuw [16 x i32], ptr %5, i64 0, i64 %27
  store i32 -1, ptr %34, align 4, !tbaa !3
  br label %.backedge.backedge

.critedge.thread:                                 ; preds = %11, %20, %31
  %.022 = phi i32 [ 1, %31 ], [ 1, %20 ], [ 0, %11 ]
  call void @llvm.lifetime.end.p0(i64 64, ptr nonnull %5) #4
  ret i32 %.022
}